target datalayout = "e-m:e-p270:32:32-p271:32:32-p272:64:64-i64:64-i128:128-f80:128-n8:16:32:64-S128"
target triple = "x86_64-pc-linux-gnu"

%struct.expert_field = type { i32, i32 }

@hf_nan_mac_address = internal global i32 0, align 4
@hf_nan_non_op_channel_global_op_class = internal global i32 0, align 4
@hf_nan_non_op_channel_channel = internal global i32 0, align 4
@hf_nan_non_op_channel_center_freq = internal global i32 0, align 4
@hf_nan_non_beacon_tbtt_offset = internal global i32 0, align 4
@hf_nan_non_beacon_interval = internal global i32 0, align 4
@hf_nan_attr_mesh_id = internal global i32 0, align 4
@ett_non_nan_op_channel = internal global i32 0, align 4
@ett_non_nan_beacon = internal global i32 0, align 4
@ei_nan_elem_len_invalid = internal global %struct.expert_field zeroinitializer, align 4
@.str.727 = private unnamed_addr constant [38 x i8] c"Non-NAN Operating Channel Information\00", align 1
@.str.728 = private unnamed_addr constant [27 x i8] c"Non-NAN Beacon Information\00", align 1

; Function Attrs: null_pointer_is_valid sspstrong uwtable
define internal void @dissect_attr_extended_mesh(ptr noundef %0, ptr noundef %1, i32 noundef %2, i16 noundef zeroext %3, ptr noundef %4) #0 {
  %6 = alloca ptr, align 8
  %7 = alloca ptr, align 8
  %8 = alloca i32, align 4
  %9 = alloca i16, align 2
  %10 = alloca ptr, align 8
  %11 = alloca i32, align 4
  %12 = alloca i32, align 4
  %13 = alloca ptr, align 8
  %14 = alloca ptr, align 8
  %15 = alloca ptr, align 8
  %16 = alloca ptr, align 8
  store ptr %0, ptr %6, align 8
  store ptr %1, ptr %7, align 8
  store i32 %2, ptr %8, align 4
  store i16 %3, ptr %9, align 2
  store ptr %4, ptr %10, align 8
  %17 = load i16, ptr %9, align 2
  %18 = zext i16 %17 to i32
  %19 = icmp slt i32 %18, 13
  br i1 %19, label %20, label %24

20:                                               ; preds = %5
  %21 = load ptr, ptr %10, align 8
  %22 = load ptr, ptr %6, align 8
  %23 = call ptr @expert_add_info(ptr noundef %21, ptr noundef %22, ptr noundef @ei_nan_elem_len_invalid)
  br label %95

24:                                               ; preds = %5
  call void @llvm.lifetime.start.p0(i64 4, ptr %11) #5
  %25 = load i32, ptr %8, align 4
  %26 = add i32 %25, 3
  store i32 %26, ptr %11, align 4
  call void @llvm.lifetime.start.p0(i64 4, ptr %12) #5
  %27 = load ptr, ptr %7, align 8
  %28 = load i32, ptr %11, align 4
  %29 = sub i32 %28, 2
  %30 = call zeroext i16 @tvb_get_uint16(ptr noundef %27, i32 noundef %29, i32 noundef -2147483648)
  %31 = zext i16 %30 to i32
  store i32 %31, ptr %12, align 4
  %32 = load ptr, ptr %6, align 8
  %33 = load i32, ptr @hf_nan_mac_address, align 4
  %34 = load ptr, ptr %7, align 8
  %35 = load i32, ptr %11, align 4
  %36 = call ptr @proto_tree_add_item(ptr noundef %32, i32 noundef %33, ptr noundef %34, i32 noundef %35, i32 noundef 6, i32 noundef 0)
  %37 = load i32, ptr %11, align 4
  %38 = add i32 %37, 6
  store i32 %38, ptr %11, align 4
  call void @llvm.lifetime.start.p0(i64 8, ptr %13) #5
  store ptr @.str.727, ptr %13, align 8
  call void @llvm.lifetime.start.p0(i64 8, ptr %14) #5
  %39 = load ptr, ptr %6, align 8
  %40 = load ptr, ptr %7, align 8
  %41 = load i32, ptr %11, align 4
  %42 = load i32, ptr @ett_non_nan_op_channel, align 4
  %43 = load ptr, ptr %13, align 8
  %44 = call ptr @proto_tree_add_subtree(ptr noundef %39, ptr noundef %40, i32 noundef %41, i32 noundef 3, i32 noundef %42, ptr noundef null, ptr noundef %43)
  store ptr %44, ptr %14, align 8
  %45 = load ptr, ptr %14, align 8
  %46 = load i32, ptr @hf_nan_non_op_channel_global_op_class, align 4
  %47 = load ptr, ptr %7, align 8
  %48 = load i32, ptr %11, align 4
  %49 = call ptr @proto_tree_add_item(ptr noundef %45, i32 noundef %46, ptr noundef %47, i32 noundef %48, i32 noundef 1, i32 noundef 0)
  %50 = load i32, ptr %11, align 4
  %51 = add i32 %50, 1
  store i32 %51, ptr %11, align 4
  %52 = load ptr, ptr %14, align 8
  %53 = load i32, ptr @hf_nan_non_op_channel_channel, align 4
  %54 = load ptr, ptr %7, align 8
  %55 = load i32, ptr %11, align 4
  %56 = call ptr @proto_tree_add_item(ptr noundef %52, i32 noundef %53, ptr noundef %54, i32 noundef %55, i32 noundef 1, i32 noundef 0)
  %57 = load i32, ptr %11, align 4
  %58 = add i32 %57, 1
  store i32 %58, ptr %11, align 4
  %59 = load ptr, ptr %14, align 8
  %60 = load i32, ptr @hf_nan_non_op_channel_center_freq, align 4
  %61 = load ptr, ptr %7, align 8
  %62 = load i32, ptr %11, align 4
  %63 = call ptr @proto_tree_add_item(ptr noundef %59, i32 noundef %60, ptr noundef %61, i32 noundef %62, i32 noundef 1, i32 noundef 0)
  %64 = load i32, ptr %11, align 4
  %65 = add i32 %64, 1
  store i32 %65, ptr %11, align 4
  call void @llvm.lifetime.start.p0(i64 8, ptr %15) #5
  store ptr @.str.728, ptr %15, align 8
  call void @llvm.lifetime.start.p0(i64 8, ptr %16) #5
  %66 = load ptr, ptr %6, align 8
  %67 = load ptr, ptr %7, align 8
  %68 = load i32, ptr %11, align 4
  %69 = load i32, ptr @ett_non_nan_beacon, align 4
  %70 = load ptr, ptr %15, align 8
  %71 = call ptr @proto_tree_add_subtree(ptr noundef %66, ptr noundef %67, i32 noundef %68, i32 noundef 4, i32 noundef %69, ptr noundef null, ptr noundef %70)
  store ptr %71, ptr %16, align 8
  %72 = load ptr, ptr %16, align 8
  %73 = load i32, ptr @hf_nan_non_beacon_tbtt_offset, align 4
  %74 = load ptr, ptr %7, align 8
  %75 = load i32, ptr %11, align 4
  %76 = call ptr @proto_tree_add_item(ptr noundef %72, i32 noundef %73, ptr noundef %74, i32 noundef %75, i32 noundef 2, i32 noundef -2147483648)
  %77 = load i32, ptr %11, align 4
  %78 = add i32 %77, 2
  store i32 %78, ptr %11, align 4
  %79 = load ptr, ptr %16, align 8
  %80 = load i32, ptr @hf_nan_non_beacon_interval, align 4
  %81 = load ptr, ptr %7, align 8
  %82 = load i32, ptr %11, align 4
  %83 = call ptr @proto_tree_add_item(ptr noundef %79, i32 noundef %80, ptr noundef %81, i32 noundef %82, i32 noundef 2, i32 noundef -2147483648)
  %84 = load i32, ptr %11, align 4
  %85 = add i32 %84, 2
  store i32 %85, ptr %11, align 4
  %86 = load ptr, ptr %6, align 8
  %87 = load i32, ptr @hf_nan_attr_mesh_id, align 4
  %88 = load ptr, ptr %7, align 8
  %89 = load i32, ptr %11, align 4
  %90 = load i32, ptr %12, align 4
  %91 = load i32, ptr %11, align 4
  %92 = sub i32 %90, %91
  %93 = add i32 %92, 3
  %94 = call ptr @proto_tree_add_item(ptr noundef %86, i32 noundef %87, ptr noundef %88, i32 noundef %89, i32 noundef %93, i32 noundef 0)
  call void @llvm.lifetime.end.p0(i64 8, ptr %16) #5
  call void @llvm.lifetime.end.p0(i64 8, ptr %15) #5
  call void @llvm.lifetime.end.p0(i64 8, ptr %14) #5
  call void @llvm.lifetime.end.p0(i64 8, ptr %13) #5
  call void @llvm.lifetime.end.p0(i64 4, ptr %12) #5
  call void @llvm.lifetime.end.p0(i64 4, ptr %11) #5
  br label %95

95:                                               ; preds = %24, %20
  ret void
}