; Function Attrs: null_pointer_is_valid sspstrong uwtable
define internal fastcc void @dissect_attr_extended_mesh(ptr noundef %0, ptr noundef %1, i32 noundef %2, i16 noundef zeroext %3, ptr noundef %4) unnamed_addr #0 {
  %6 = icmp ult i16 %3, 13
  br i1 %6, label %7, label %9

7:                                                ; preds = %5
  %8 = tail call ptr @expert_add_info(ptr noundef %4, ptr noundef %0, ptr noundef nonnull @ei_nan_elem_len_invalid)
  br label %39

9:                                                ; preds = %5
  %10 = add i32 %2, 3
  %11 = add i32 %2, 1
  %12 = tail call zeroext i16 @tvb_get_uint16(ptr noundef %1, i32 noundef %11, i32 noundef -2147483648)
  %13 = zext i16 %12 to i32
  %14 = load i32, ptr @hf_nan_mac_address, align 4
  %15 = tail call ptr @proto_tree_add_item(ptr noundef %0, i32 noundef %14, ptr noundef %1, i32 noundef %10, i32 noundef 6, i32 noundef 0)
  %16 = add i32 %2, 9
  %17 = load i32, ptr @ett_non_nan_op_channel, align 4
  %18 = tail call ptr @proto_tree_add_subtree(ptr noundef %0, ptr noundef %1, i32 noundef %16, i32 noundef 3, i32 noundef %17, ptr noundef null, ptr noundef nonnull @.str.727)
  %19 = load i32, ptr @hf_nan_non_op_channel_global_op_class, align 4
  %20 = tail call ptr @proto_tree_add_item(ptr noundef %18, i32 noundef %19, ptr noundef %1, i32 noundef %16, i32 noundef 1, i32 noundef 0)
  %21 = add i32 %2, 10
  %22 = load i32, ptr @hf_nan_non_op_channel_channel, align 4
  %23 = tail call ptr @proto_tree_add_item(ptr noundef %18, i32 noundef %22, ptr noundef %1, i32 noundef %21, i32 noundef 1, i32 noundef 0)
  %24 = add i32 %2, 11
  %25 = load i32, ptr @hf_nan_non_op_channel_center_freq, align 4
  %26 = tail call ptr @proto_tree_add_item(ptr noundef %18, i32 noundef %25, ptr noundef %1, i32 noundef %24, i32 noundef 1, i32 noundef 0)
  %27 = add i32 %2, 12
  %28 = load i32, ptr @ett_non_nan_beacon, align 4
  %29 = tail call ptr @proto_tree_add_subtree(ptr noundef %0, ptr noundef %1, i32 noundef %27, i32 noundef 4, i32 noundef %28, ptr noundef null, ptr noundef nonnull @.str.728)
  %30 = load i32, ptr @hf_nan_non_beacon_tbtt_offset, align 4
  %31 = tail call ptr @proto_tree_add_item(ptr noundef %29, i32 noundef %30, ptr noundef %1, i32 noundef %27, i32 noundef 2, i32 noundef -2147483648)
  %32 = add i32 %2, 14
  %33 = load i32, ptr @hf_nan_non_beacon_interval, align 4
  %34 = tail call ptr @proto_tree_add_item(ptr noundef %29, i32 noundef %33, ptr noundef %1, i32 noundef %32, i32 noundef 2, i32 noundef -2147483648)
  %35 = add i32 %2, 16
  %36 = load i32, ptr @hf_nan_attr_mesh_id, align 4
  %reass.sub = sub i32 %13, %2
  %37 = add i32 %reass.sub, -13
  %38 = tail call ptr @proto_tree_add_item(ptr noundef %0, i32 noundef %36, ptr noundef %1, i32 noundef %35, i32 noundef %37, i32 noundef 0)
  br label %39

39:                                               ; preds = %9, %7
  ret void
}